target datalayout = "e-m:e-p270:32:32-p271:32:32-p272:64:64-i64:64-i128:128-f80:128-n8:16:32:64-S128"
target triple = "x86_64-pc-linux-gnu"

%struct._psqlSettings = type { ptr, i32, ptr, i8, ptr, ptr, %struct.printQueryOpt, ptr, ptr, ptr, i8, i8, i32, i32, ptr, ptr, i8, [4 x ptr], i8, i32, ptr, i8, i32, ptr, ptr, i64, i64, i8, ptr, ptr, ptr, i8, i8, i8, i8, i8, i8, i8, i32, i32, i32, i32, i32, i32, i32, i32, ptr, ptr, ptr, i32, i8, i32 }
%struct.printQueryOpt = type { %struct.printTableOpt, ptr, ptr, ptr, i8, ptr, i32 }
%struct.printTableOpt = type { i32, i16, i32, i32, i16, i16, i32, i8, i8, i8, i8, i64, ptr, %struct.separator, %struct.separator, [2 x i8], i8, ptr, i32, i32, i32, i32, i32, i32 }
%struct.separator = type { ptr, i8 }
%struct.PQExpBufferData = type { ptr, i64, i64 }

@useHistory = internal global i8 0, align 1
@pg_send_history.prev_hist = internal global ptr null, align 8
@pset = external global %struct._psqlSettings, align 8
@history_lines_added = internal global i32 0, align 4

; Function Attrs: nounwind uwtable
define dso_local void @pg_send_history(ptr noundef %0) #0 {
  %2 = alloca ptr, align 8
  %3 = alloca ptr, align 8
  %4 = alloca i32, align 4
  store ptr %0, ptr %2, align 8
  call void @llvm.lifetime.start.p0(i64 8, ptr %3) #5
  %5 = load ptr, ptr %2, align 8
  %6 = getelementptr inbounds nuw %struct.PQExpBufferData, ptr %5, i32 0, i32 0
  %7 = load ptr, ptr %6, align 8
  store ptr %7, ptr %3, align 8
  call void @llvm.lifetime.start.p0(i64 4, ptr %4) #5
  %8 = load ptr, ptr %3, align 8
  %9 = call i64 @strlen(ptr noundef %8) #6
  %10 = sub i64 %9, 1
  %11 = trunc i64 %10 to i32
  store i32 %11, ptr %4, align 4
  br label %12

12:                                               ; preds = %26, %1
  %13 = load i32, ptr %4, align 4
  %14 = icmp sge i32 %13, 0
  br i1 %14, label %15, label %23

15:                                               ; preds = %12
  %16 = load ptr, ptr %3, align 8
  %17 = load i32, ptr %4, align 4
  %18 = sext i32 %17 to i64
  %19 = getelementptr inbounds i8, ptr %16, i64 %18
  %20 = load i8, ptr %19, align 1
  %21 = sext i8 %20 to i32
  %22 = icmp eq i32 %21, 10
  br label %23

23:                                               ; preds = %15, %12
  %24 = phi i1 [ false, %12 ], [ %22, %15 ]
  br i1 %24, label %25, label %29

25:                                               ; preds = %23
  br label %26

26:                                               ; preds = %25
  %27 = load i32, ptr %4, align 4
  %28 = add i32 %27, -1
  store i32 %28, ptr %4, align 4
  br label %12, !llvm.loop !6

29:                                               ; preds = %23
  %30 = load ptr, ptr %3, align 8
  %31 = load i32, ptr %4, align 4
  %32 = add i32 %31, 1
  %33 = sext i32 %32 to i64
  %34 = getelementptr inbounds i8, ptr %30, i64 %33
  store i8 0, ptr %34, align 1
  %35 = load i8, ptr @useHistory, align 1, !range !4, !noundef !5
  %36 = trunc i8 %35 to i1
  br i1 %36, label %37, label %74

37:                                               ; preds = %29
  %38 = load ptr, ptr %3, align 8
  %39 = getelementptr inbounds i8, ptr %38, i64 0
  %40 = load i8, ptr %39, align 1
  %41 = sext i8 %40 to i32
  %42 = icmp ne i32 %41, 0
  br i1 %42, label %43, label %74

43:                                               ; preds = %37
  %44 = load i32, ptr getelementptr inbounds nuw (%struct._psqlSettings, ptr @pset, i32 0, i32 45), align 4
  %45 = and i32 %44, 1
  %46 = icmp ne i32 %45, 0
  br i1 %46, label %47, label %53

47:                                               ; preds = %43
  %48 = load ptr, ptr %3, align 8
  %49 = getelementptr inbounds i8, ptr %48, i64 0
  %50 = load i8, ptr %49, align 1
  %51 = sext i8 %50 to i32
  %52 = icmp eq i32 %51, 32
  br i1 %52, label %65, label %53

53:                                               ; preds = %47, %43
  %54 = load i32, ptr getelementptr inbounds nuw (%struct._psqlSettings, ptr @pset, i32 0, i32 45), align 4
  %55 = and i32 %54, 2
  %56 = icmp ne i32 %55, 0
  br i1 %56, label %57, label %66

57:                                               ; preds = %53
  %58 = load ptr, ptr @pg_send_history.prev_hist, align 8
  %59 = icmp ne ptr %58, null
  br i1 %59, label %60, label %66

60:                                               ; preds = %57
  %61 = load ptr, ptr %3, align 8
  %62 = load ptr, ptr @pg_send_history.prev_hist, align 8
  %63 = call i32 @strcmp(ptr noundef %61, ptr noundef %62) #6
  %64 = icmp eq i32 %63, 0
  br i1 %64, label %65, label %66

65:                                               ; preds = %60, %47
  br label %73

66:                                               ; preds = %60, %57, %53
  %67 = load ptr, ptr @pg_send_history.prev_hist, align 8
  call void @free(ptr noundef %67) #5
  %68 = load ptr, ptr %3, align 8
  %69 = call ptr @pg_strdup(ptr noundef %68)
  store ptr %69, ptr @pg_send_history.prev_hist, align 8
  %70 = load ptr, ptr %3, align 8
  call void @add_history(ptr noundef %70)
  %71 = load i32, ptr @history_lines_added, align 4
  %72 = add i32 %71, 1
  store i32 %72, ptr @history_lines_added, align 4
  br label %73

73:                                               ; preds = %66, %65
  br label %74

74:                                               ; preds = %73, %37, %29
  %75 = load ptr, ptr %2, align 8
  call void @resetPQExpBuffer(ptr noundef %75)
  call void @llvm.lifetime.end.p0(i64 4, ptr %4) #5
  call void @llvm.lifetime.end.p0(i64 8, ptr %3) #5
  ret void
}