; Function Attrs: nounwind uwtable
define dso_local void @pg_send_history(ptr noundef %0) local_unnamed_addr #0 {
  %2 = load ptr, ptr %0, align 8
  %3 = tail call i64 @strlen(ptr noundef nonnull dereferenceable(1) %2) #10
  %4 = trunc i64 %3 to i32
  %5 = and i64 %3, 4294967295
  %6 = add i32 %4, -1
  %smin = tail call i32 @llvm.smin.i32(i32 %6, i32 -1)
  %7 = add nsw i32 %smin, 1
  br label %8

8:                                                ; preds = %11, %1
  %indvars.iv = phi i64 [ %indvars.iv.next, %11 ], [ %5, %1 ]
  %indvars.iv.next = add nsw i64 %indvars.iv, -1
  %9 = and i64 %indvars.iv.next, 2147483648
  %10 = icmp eq i64 %9, 0
  br i1 %10, label %11, label %.critedge

11:                                               ; preds = %8
  %12 = and i64 %indvars.iv.next, 2147483647
  %13 = getelementptr inbounds nuw i8, ptr %2, i64 %12
  %14 = load i8, ptr %13, align 1
  %15 = icmp eq i8 %14, 10
  br i1 %15, label %8, label %.critedge.split.loop.exit20, !llvm.loop !4

.critedge.split.loop.exit20:                      ; preds = %11
  %16 = trunc nuw i64 %indvars.iv to i32
  br label %.critedge

.critedge:                                        ; preds = %8, %.critedge.split.loop.exit20
  %.0.in.lcssa = phi i32 [ %16, %.critedge.split.loop.exit20 ], [ %7, %8 ]
  %17 = sext i32 %.0.in.lcssa to i64
  %18 = getelementptr inbounds i8, ptr %2, i64 %17
  store i8 0, ptr %18, align 1
  %.b16 = load i1, ptr @useHistory, align 1
  br i1 %.b16, label %19, label %37

19:                                               ; preds = %.critedge
  %20 = load i8, ptr %2, align 1
  %.not = icmp eq i8 %20, 0
  br i1 %.not, label %37, label %21

21:                                               ; preds = %19
  %22 = load i32, ptr getelementptr inbounds nuw (i8, ptr @pset, i64 436), align 4
  %23 = and i32 %22, 1
  %.not17 = icmp ne i32 %23, 0
  %24 = icmp eq i8 %20, 32
  %or.cond18 = and i1 %24, %.not17
  br i1 %or.cond18, label %37, label %25

25:                                               ; preds = %21
  %26 = and i32 %22, 2
  %27 = icmp ne i32 %26, 0
  %28 = load ptr, ptr @pg_send_history.prev_hist, align 8
  %29 = icmp ne ptr %28, null
  %or.cond = select i1 %27, i1 %29, i1 false
  br i1 %or.cond, label %30, label %33

30:                                               ; preds = %25
  %31 = tail call i32 @strcmp(ptr noundef nonnull dereferenceable(1) %2, ptr noundef nonnull dereferenceable(1) %28) #10
  %32 = icmp eq i32 %31, 0
  br i1 %32, label %37, label %33

33:                                               ; preds = %30, %25
  tail call void @free(ptr noundef %28) #9
  %34 = tail call ptr @pg_strdup(ptr noundef nonnull %2) #9
  store ptr %34, ptr @pg_send_history.prev_hist, align 8
  tail call void @add_history(ptr noundef nonnull %2) #9
  %35 = load i32, ptr @history_lines_added, align 4
  %36 = add i32 %35, 1
  store i32 %36, ptr @history_lines_added, align 4
  br label %37

37:                                               ; preds = %21, %33, %30, %19, %.critedge
  tail call void @resetPQExpBuffer(ptr noundef nonnull %0) #9
  ret void
}